; ModuleID = 'source-C-CXX/10/529.c'
source_filename = "source-C-CXX/10/529.c"
target datalayout = "e-m:e-p270:32:32-p271:32:32-p272:64:64-i64:64-f80:128-n8:16:32:64-S128"
target triple = "x86_64-pc-linux-gnu"

@.str = private unnamed_addr constant [7 x i8] c"%d%d%d\00", align 1
@__const.main.a = private unnamed_addr constant [13 x i32] [i32 0, i32 31, i32 28, i32 31, i32 30, i32 31, i32 30, i32 31, i32 31, i32 30, i32 31, i32 30, i32 31], align 16
@.str.1 = private unnamed_addr constant [3 x i8] c"%d\00", align 1

; Function Attrs: nofree nounwind sspstrong uwtable
define dso_local i32 @main() local_unnamed_addr #0 {
  %1 = alloca i32, align 4
  %2 = alloca i32, align 4
  %3 = alloca i32, align 4
  %4 = bitcast i32* %1 to i8*
  call void @llvm.lifetime.start.p0i8(i64 4, i8* nonnull %4) #4
  %5 = bitcast i32* %2 to i8*
  call void @llvm.lifetime.start.p0i8(i64 4, i8* nonnull %5) #4
  %6 = bitcast i32* %3 to i8*
  call void @llvm.lifetime.start.p0i8(i64 4, i8* nonnull %6) #4
  %7 = call i32 (i8*, ...) @__isoc99_scanf(i8* getelementptr inbounds ([7 x i8], [7 x i8]* @.str, i64 0, i64 0), i32* nonnull %1, i32* nonnull %2, i32* nonnull %3)
  %8 = load i32, i32* %2, align 4, !tbaa !5
  %9 = icmp sgt i32 %8, 0
  br i1 %9, label %10, label %132

10:                                               ; preds = %0
  %11 = zext i32 %8 to i64
  %12 = icmp ult i32 %8, 8
  br i1 %12, label %94, label %13

13:                                               ; preds = %10
  %14 = and i64 %11, 4294967288
  %15 = add nsw i64 %14, -8
  %16 = lshr exact i64 %15, 3
  %17 = add nuw nsw i64 %16, 1
  %18 = and i64 %17, 3
  %19 = icmp ult i64 %15, 24
  br i1 %19, label %65, label %20

20:                                               ; preds = %13
  %21 = and i64 %17, 4611686018427387900
  br label %22

22:                                               ; preds = %22, %20
  %23 = phi i64 [ 0, %20 ], [ %62, %22 ]
  %24 = phi <4 x i32> [ zeroinitializer, %20 ], [ %60, %22 ]
  %25 = phi <4 x i32> [ zeroinitializer, %20 ], [ %61, %22 ]
  %26 = phi i64 [ %21, %20 ], [ %63, %22 ]
  %27 = getelementptr inbounds [13 x i32], [13 x i32]* @__const.main.a, i64 0, i64 %23
  %28 = bitcast i32* %27 to <4 x i32>*
  %29 = load <4 x i32>, <4 x i32>* %28, align 16, !tbaa !5
  %30 = getelementptr inbounds i32, i32* %27, i64 4
  %31 = bitcast i32* %30 to <4 x i32>*
  %32 = load <4 x i32>, <4 x i32>* %31, align 16, !tbaa !5
  %33 = add <4 x i32> %29, %24
  %34 = add <4 x i32> %32, %25
  %35 = or i64 %23, 8
  %36 = getelementptr inbounds [13 x i32], [13 x i32]* @__const.main.a, i64 0, i64 %35
  %37 = bitcast i32* %36 to <4 x i32>*
  %38 = load <4 x i32>, <4 x i32>* %37, align 16, !tbaa !5
  %39 = getelementptr inbounds i32, i32* %36, i64 4
  %40 = bitcast i32* %39 to <4 x i32>*
  %41 = load <4 x i32>, <4 x i32>* %40, align 16, !tbaa !5
  %42 = add <4 x i32> %38, %33
  %43 = add <4 x i32> %41, %34
  %44 = or i64 %23, 16
  %45 = getelementptr inbounds [13 x i32], [13 x i32]* @__const.main.a, i64 0, i64 %44
  %46 = bitcast i32* %45 to <4 x i32>*
  %47 = load <4 x i32>, <4 x i32>* %46, align 16, !tbaa !5
  %48 = getelementptr inbounds i32, i32* %45, i64 4
  %49 = bitcast i32* %48 to <4 x i32>*
  %50 = load <4 x i32>, <4 x i32>* %49, align 16, !tbaa !5
  %51 = add <4 x i32> %47, %42
  %52 = add <4 x i32> %50, %43
  %53 = or i64 %23, 24
  %54 = getelementptr inbounds [13 x i32], [13 x i32]* @__const.main.a, i64 0, i64 %53
  %55 = bitcast i32* %54 to <4 x i32>*
  %56 = load <4 x i32>, <4 x i32>* %55, align 16, !tbaa !5
  %57 = getelementptr inbounds i32, i32* %54, i64 4
  %58 = bitcast i32* %57 to <4 x i32>*
  %59 = load <4 x i32>, <4 x i32>* %58, align 16, !tbaa !5
  %60 = add <4 x i32> %56, %51
  %61 = add <4 x i32> %59, %52
  %62 = add nuw i64 %23, 32
  %63 = add i64 %26, -4
  %64 = icmp eq i64 %63, 0
  br i1 %64, label %65, label %22, !llvm.loop !9

65:                                               ; preds = %22, %13
  %66 = phi <4 x i32> [ undef, %13 ], [ %60, %22 ]
  %67 = phi <4 x i32> [ undef, %13 ], [ %61, %22 ]
  %68 = phi i64 [ 0, %13 ], [ %62, %22 ]
  %69 = phi <4 x i32> [ zeroinitializer, %13 ], [ %60, %22 ]
  %70 = phi <4 x i32> [ zeroinitializer, %13 ], [ %61, %22 ]
  %71 = icmp eq i64 %18, 0
  br i1 %71, label %88, label %72

72:                                               ; preds = %65, %72
  %73 = phi i64 [ %85, %72 ], [ %68, %65 ]
  %74 = phi <4 x i32> [ %83, %72 ], [ %69, %65 ]
  %75 = phi <4 x i32> [ %84, %72 ], [ %70, %65 ]
  %76 = phi i64 [ %86, %72 ], [ %18, %65 ]
  %77 = getelementptr inbounds [13 x i32], [13 x i32]* @__const.main.a, i64 0, i64 %73
  %78 = bitcast i32* %77 to <4 x i32>*
  %79 = load <4 x i32>, <4 x i32>* %78, align 16, !tbaa !5
  %80 = getelementptr inbounds i32, i32* %77, i64 4
  %81 = bitcast i32* %80 to <4 x i32>*
  %82 = load <4 x i32>, <4 x i32>* %81, align 16, !tbaa !5
  %83 = add <4 x i32> %79, %74
  %84 = add <4 x i32> %82, %75
  %85 = add nuw i64 %73, 8
  %86 = add i64 %76, -1
  %87 = icmp eq i64 %86, 0
  br i1 %87, label %88, label %72, !llvm.loop !12

88:                                               ; preds = %72, %65
  %89 = phi <4 x i32> [ %66, %65 ], [ %83, %72 ]
  %90 = phi <4 x i32> [ %67, %65 ], [ %84, %72 ]
  %91 = add <4 x i32> %90, %89
  %92 = call i32 @llvm.vector.reduce.add.v4i32(<4 x i32> %91)
  %93 = icmp eq i64 %14, %11
  br i1 %93, label %105, label %94

94:                                               ; preds = %10, %88
  %95 = phi i64 [ 0, %10 ], [ %14, %88 ]
  %96 = phi i32 [ 0, %10 ], [ %92, %88 ]
  br label %97

97:                                               ; preds = %94, %97
  %98 = phi i64 [ %103, %97 ], [ %95, %94 ]
  %99 = phi i32 [ %102, %97 ], [ %96, %94 ]
  %100 = getelementptr inbounds [13 x i32], [13 x i32]* @__const.main.a, i64 0, i64 %98
  %101 = load i32, i32* %100, align 4, !tbaa !5
  %102 = add nsw i32 %101, %99
  %103 = add nuw nsw i64 %98, 1
  %104 = icmp eq i64 %103, %11
  br i1 %104, label %105, label %97, !llvm.loop !14

105:                                              ; preds = %97, %88
  %106 = phi i32 [ %92, %88 ], [ %102, %97 ]
  %107 = icmp sgt i32 %8, 2
  br i1 %107, label %108, label %132

108:                                              ; preds = %105
  %109 = load i32, i32* %1, align 4, !tbaa !5
  %110 = and i32 %109, 3
  %111 = icmp eq i32 %110, 0
  br i1 %111, label %112, label %129

112:                                              ; preds = %108
  %113 = srem i32 %109, 100
  %114 = icmp eq i32 %113, 0
  br i1 %114, label %115, label %125

115:                                              ; preds = %112
  %116 = srem i32 %109, 400
  %117 = icmp eq i32 %116, 0
  br i1 %117, label %118, label %122

118:                                              ; preds = %115
  %119 = add nsw i32 %106, 1
  %120 = load i32, i32* %3, align 4, !tbaa !5
  %121 = add nsw i32 %119, %120
  br label %136

122:                                              ; preds = %115
  %123 = load i32, i32* %3, align 4, !tbaa !5
  %124 = add nsw i32 %123, %106
  br label %136

125:                                              ; preds = %112
  %126 = add nsw i32 %106, 1
  %127 = load i32, i32* %3, align 4, !tbaa !5
  %128 = add nsw i32 %126, %127
  br label %136

129:                                              ; preds = %108
  %130 = load i32, i32* %3, align 4, !tbaa !5
  %131 = add nsw i32 %130, %106
  br label %136

132:                                              ; preds = %0, %105
  %133 = phi i32 [ %106, %105 ], [ 0, %0 ]
  %134 = load i32, i32* %3, align 4, !tbaa !5
  %135 = add nsw i32 %134, %133
  br label %136

136:                                              ; preds = %129, %118, %122, %125, %132
  %137 = phi i32 [ %121, %118 ], [ %124, %122 ], [ %128, %125 ], [ %131, %129 ], [ %135, %132 ]
  %138 = call i32 (i8*, ...) @printf(i8* nonnull dereferenceable(1) getelementptr inbounds ([3 x i8], [3 x i8]* @.str.1, i64 0, i64 0), i32 %137)
  call void @llvm.lifetime.end.p0i8(i64 4, i8* nonnull %6) #4
  call void @llvm.lifetime.end.p0i8(i64 4, i8* nonnull %5) #4
  call void @llvm.lifetime.end.p0i8(i64 4, i8* nonnull %4) #4
  ret i32 0
}

; Function Attrs: argmemonly mustprogress nofree nosync nounwind willreturn
declare void @llvm.lifetime.start.p0i8(i64 immarg, i8* nocapture) #1

; Function Attrs: nofree nounwind
declare noundef i32 @__isoc99_scanf(i8* nocapture noundef readonly, ...) local_unnamed_addr #2

; Function Attrs: nofree nounwind
declare noundef i32 @printf(i8* nocapture noundef readonly, ...) local_unnamed_addr #2

; Function Attrs: argmemonly mustprogress nofree nosync nounwind willreturn
declare void @llvm.lifetime.end.p0i8(i64 immarg, i8* nocapture) #1

; Function Attrs: nofree nosync nounwind readnone willreturn
declare i32 @llvm.vector.reduce.add.v4i32(<4 x i32>) #3


!llvm.module.flags = !{!0, !1, !2, !3}
!llvm.ident = !{!4}

!0 = !{i32 1, !"wchar_size", i32 4}
!1 = !{i32 7, !"PIC Level", i32 2}
!2 = !{i32 7, !"PIE Level", i32 2}
!3 = !{i32 7, !"uwtable", i32 1}
!4 = !{!"clang version 13.0.0"}
!5 = !{!6, !6, i64 0}
!6 = !{!"int", !7, i64 0}
!7 = !{!"omnipotent char", !8, i64 0}
!8 = !{!"Simple C/C++ TBAA"}
!9 = distinct !{!9, !10, !11}
!10 = !{!"llvm.loop.mustprogress"}
!11 = !{!"llvm.loop.isvectorized", i32 1}
!12 = distinct !{!12, !13}
!13 = !{!"llvm.loop.unroll.disable"}
!14 = distinct !{!14, !10, !15, !11}
!15 = !{!"llvm.loop.unroll.runtime.disable"}
